; Function Attrs: mustprogress uwtable
define void @_ZN4YAML7Scanner13PopAllIndentsEv(ptr noundef nonnull align 8 dereferenceable(488) %0) local_unnamed_addr #0 align 2 {
  %2 = getelementptr inbounds nuw i8, ptr %0, i64 456
  %3 = getelementptr inbounds nuw i8, ptr %0, i64 424
  %4 = load ptr, ptr %2, align 8, !tbaa !99
  %5 = load ptr, ptr %3, align 8, !tbaa !99
  %.not = icmp eq ptr %4, %5
  br i1 %.not, label %.preheader, label %.thread

.preheader:                                       ; preds = %1
  %6 = getelementptr inbounds nuw i8, ptr %0, i64 352
  %7 = getelementptr inbounds nuw i8, ptr %0, i64 320
  %8 = load ptr, ptr %6, align 8, !tbaa !100
  %9 = load ptr, ptr %7, align 8, !tbaa !100
  %10 = icmp eq ptr %8, %9
  br i1 %10, label %.thread, label %.lr.ph

.lr.ph:                                           ; preds = %.preheader
  %11 = getelementptr inbounds nuw i8, ptr %0, i64 360
  %12 = getelementptr inbounds nuw i8, ptr %0, i64 376
  br label %13

13:                                               ; preds = %.lr.ph, %28
  %14 = phi ptr [ %8, %.lr.ph ], [ %29, %28 ]
  %15 = load ptr, ptr %11, align 8, !tbaa !101, !noalias !154
  %16 = icmp eq ptr %14, %15
  br i1 %16, label %17, label %_ZNSt5stackIPN4YAML7Scanner12IndentMarkerESt5dequeIS3_SaIS3_EEE3topEv.exit

17:                                               ; preds = %13
  %18 = load ptr, ptr %12, align 8, !tbaa !105, !noalias !154
  %19 = getelementptr inbounds i8, ptr %18, i64 -8
  %20 = load ptr, ptr %19, align 8, !tbaa !24
  %21 = getelementptr inbounds nuw i8, ptr %20, i64 512
  br label %_ZNSt5stackIPN4YAML7Scanner12IndentMarkerESt5dequeIS3_SaIS3_EEE3topEv.exit

_ZNSt5stackIPN4YAML7Scanner12IndentMarkerESt5dequeIS3_SaIS3_EEE3topEv.exit: ; preds = %13, %17
  %22 = phi ptr [ %21, %17 ], [ %14, %13 ]
  %23 = getelementptr inbounds i8, ptr %22, i64 -8
  %24 = load ptr, ptr %23, align 8, !tbaa !10
  %25 = getelementptr inbounds nuw i8, ptr %24, i64 4
  %26 = load i32, ptr %25, align 4, !tbaa !106
  %27 = icmp eq i32 %26, 2
  br i1 %27, label %.thread, label %28

28:                                               ; preds = %_ZNSt5stackIPN4YAML7Scanner12IndentMarkerESt5dequeIS3_SaIS3_EEE3topEv.exit
  tail call void @_ZN4YAML7Scanner9PopIndentEv(ptr noundef nonnull align 8 dereferenceable(488) %0)
  %29 = load ptr, ptr %6, align 8, !tbaa !100
  %30 = load ptr, ptr %7, align 8, !tbaa !100
  %31 = icmp eq ptr %29, %30
  br i1 %31, label %.thread, label %13

.thread:                                          ; preds = %28, %_ZNSt5stackIPN4YAML7Scanner12IndentMarkerESt5dequeIS3_SaIS3_EEE3topEv.exit, %.preheader, %1
  ret void
}